; Function Attrs: mustprogress nofree norecurse nosync nounwind willreturn memory(argmem: write) uwtable
define void @_ZN3net22QuicPacketPublicHeaderC2Ev(ptr noundef nonnull writeonly align 8 captures(none) dereferenceable(48) initializes((0, 48)) %0) unnamed_addr #2 align 2 {
  store i64 0, ptr %0, align 8, !tbaa !24
  %2 = getelementptr inbounds nuw i8, ptr %0, i64 8
  store i32 8, ptr %2, align 8, !tbaa !25
  %3 = getelementptr inbounds nuw i8, ptr %0, i64 12
  store i8 0, ptr %3, align 4, !tbaa !26
  %4 = getelementptr inbounds nuw i8, ptr %0, i64 13
  store i8 0, ptr %4, align 1, !tbaa !27
  %5 = getelementptr inbounds nuw i8, ptr %0, i64 14
  store i8 0, ptr %5, align 2, !tbaa !28
  %6 = getelementptr inbounds nuw i8, ptr %0, i64 15
  store i8 6, ptr %6, align 1, !tbaa !29
  %7 = getelementptr inbounds nuw i8, ptr %0, i64 16
  tail call void @llvm.memset.p0.i64(ptr noundef nonnull align 8 dereferenceable(32) %7, i8 0, i64 32, i1 false)
  ret void
}